; ModuleID = '3/1093.c'
source_filename = "3/1093.c"
target datalayout = "e-m:e-p270:32:32-p271:32:32-p272:64:64-i64:64-f80:128-n8:16:32:64-S128"
target triple = "x86_64-pc-linux-gnu"

@.str = private unnamed_addr constant [5 x i8] c"%d%d\00", align 1
@.str.1 = private unnamed_addr constant [3 x i8] c"%d\00", align 1
@.str.2 = private unnamed_addr constant [4 x i8] c"yes\00", align 1
@.str.3 = private unnamed_addr constant [3 x i8] c"no\00", align 1

; Function Attrs: noinline nounwind uwtable
define dso_local i32 @main() #0 {
  %1 = alloca i32, align 4
  %2 = alloca i32, align 4
  %3 = alloca i32, align 4
  %4 = alloca i32, align 4
  %5 = alloca i32, align 4
  %6 = alloca [1000 x i32], align 16
  %7 = alloca i32, align 4
  %8 = alloca i32, align 4
  store i32 0, i32* %1, align 4
  store i32 0, i32* %8, align 4
  %9 = call i32 (i8*, ...) @__isoc99_scanf(i8* getelementptr inbounds ([5 x i8], [5 x i8]* @.str, i64 0, i64 0), i32* %2, i32* %3)
  store i32 0, i32* %4, align 4
  br label %10

10:                                               ; preds = %19, %0
  %11 = load i32, i32* %4, align 4
  %12 = load i32, i32* %2, align 4
  %13 = icmp slt i32 %11, %12
  br i1 %13, label %14, label %22

14:                                               ; preds = %10
  %15 = load i32, i32* %4, align 4
  %16 = sext i32 %15 to i64
  %17 = getelementptr inbounds [1000 x i32], [1000 x i32]* %6, i64 0, i64 %16
  %18 = call i32 (i8*, ...) @__isoc99_scanf(i8* getelementptr inbounds ([3 x i8], [3 x i8]* @.str.1, i64 0, i64 0), i32* %17)
  br label %19

19:                                               ; preds = %14
  %20 = load i32, i32* %4, align 4
  %21 = add nsw i32 %20, 1
  store i32 %21, i32* %4, align 4
  br label %10

22:                                               ; preds = %10
  %23 = load i32, i32* %2, align 4
  %24 = icmp eq i32 %23, 1
  br i1 %24, label %25, label %31

25:                                               ; preds = %22
  %26 = getelementptr inbounds [1000 x i32], [1000 x i32]* %6, i64 0, i64 0
  %27 = load i32, i32* %26, align 16
  %28 = load i32, i32* %3, align 4
  %29 = icmp eq i32 %27, %28
  br i1 %29, label %30, label %31

30:                                               ; preds = %25
  store i32 1, i32* %8, align 4
  br label %31

31:                                               ; preds = %30, %25, %22
  store i32 0, i32* %4, align 4
  br label %32

32:                                               ; preds = %65, %31
  %33 = load i32, i32* %4, align 4
  %34 = load i32, i32* %2, align 4
  %35 = icmp slt i32 %33, %34
  br i1 %35, label %36, label %68

36:                                               ; preds = %32
  store i32 0, i32* %5, align 4
  br label %37

37:                                               ; preds = %61, %36
  %38 = load i32, i32* %5, align 4
  %39 = load i32, i32* %2, align 4
  %40 = icmp slt i32 %38, %39
  br i1 %40, label %41, label %64

41:                                               ; preds = %37
  %42 = load i32, i32* %4, align 4
  %43 = load i32, i32* %5, align 4
  %44 = icmp ne i32 %42, %43
  br i1 %44, label %45, label %55

45:                                               ; preds = %41
  %46 = load i32, i32* %4, align 4
  %47 = sext i32 %46 to i64
  %48 = getelementptr inbounds [1000 x i32], [1000 x i32]* %6, i64 0, i64 %47
  %49 = load i32, i32* %48, align 4
  %50 = load i32, i32* %5, align 4
  %51 = sext i32 %50 to i64
  %52 = getelementptr inbounds [1000 x i32], [1000 x i32]* %6, i64 0, i64 %51
  %53 = load i32, i32* %52, align 4
  %54 = add nsw i32 %49, %53
  store i32 %54, i32* %7, align 4
  br label %55

55:                                               ; preds = %45, %41
  %56 = load i32, i32* %7, align 4
  %57 = load i32, i32* %3, align 4
  %58 = icmp eq i32 %56, %57
  br i1 %58, label %59, label %60

59:                                               ; preds = %55
  store i32 1, i32* %8, align 4
  br label %60

60:                                               ; preds = %59, %55
  br label %61

61:                                               ; preds = %60
  %62 = load i32, i32* %5, align 4
  %63 = add nsw i32 %62, 1
  store i32 %63, i32* %5, align 4
  br label %37

64:                                               ; preds = %37
  br label %65

65:                                               ; preds = %64
  %66 = load i32, i32* %4, align 4
  %67 = add nsw i32 %66, 1
  store i32 %67, i32* %4, align 4
  br label %32

68:                                               ; preds = %32
  %69 = load i32, i32* %8, align 4
  %70 = icmp eq i32 %69, 1
  br i1 %70, label %71, label %73

71:                                               ; preds = %68
  %72 = call i32 (i8*, ...) @printf(i8* getelementptr inbounds ([4 x i8], [4 x i8]* @.str.2, i64 0, i64 0))
  br label %75

73:                                               ; preds = %68
  %74 = call i32 (i8*, ...) @printf(i8* getelementptr inbounds ([3 x i8], [3 x i8]* @.str.3, i64 0, i64 0))
  br label %75

75:                                               ; preds = %73, %71
  ret i32 0
}

declare dso_local i32 @__isoc99_scanf(i8*, ...) #1

declare dso_local i32 @printf(i8*, ...) #1


!llvm.module.flags = !{!0}
!llvm.ident = !{!1}

!0 = !{i32 1, !"wchar_size", i32 4}
!1 = !{!"clang version 10.0.0-4ubuntu1 "}
